; Function Attrs: null_pointer_is_valid sspstrong uwtable
define hidden i32 @dissect_rtse_RTORJapdu(i1 noundef zeroext %0, ptr noundef %1, i32 noundef %2, ptr noundef %3, ptr noundef %4, i32 noundef %5) #0 {
  %7 = getelementptr inbounds nuw i8, ptr %3, i64 16
  %8 = load ptr, ptr %7, align 8
  %9 = getelementptr inbounds nuw i8, ptr %8, i64 8
  %10 = load ptr, ptr %9, align 8
  tail call void @col_append_str(ptr noundef %10, i32 noundef 25, ptr noundef nonnull @.str.2)
  %11 = load i32, ptr @ett_rtse_RTORJapdu, align 4
  %12 = tail call i32 @dissect_ber_set(i1 noundef zeroext %0, ptr noundef %3, ptr noundef %4, ptr noundef %1, i32 noundef %2, ptr noundef nonnull @RTORJapdu_set, i32 noundef %5, i32 noundef %11)
  ret i32 %12
}